(dp0
cnumpy.core.multiarray
scalar
p1
(cnumpy
dtype
p2
(S'U3'
p3
I0
I1
tp4
Rp5
(I3
S'<'
p6
NNNI12
I4
I8
tp7
bS'sS\x00\x00\xe5e\x00\x00w\x8d\x00\x00'
p8
tp9
Rp10
I01
sg1
(g2
(S'U2'
p11
I0
I1
tp12
Rp13
(I3
S'<'
p14
NNNI8
I4
I8
tp15
bS'hQ\x00\x00:W\x00\x00'
p16
tp17
Rp18
I01
sg1
(g2
(S'U3'
p19
I0
I1
tp20
Rp21
(I3
S'<'
p22
NNNI12
I4
I8
tp23
bS'\x1fa\x00\x00"\x8c\x00\x00\xa8`\x00\x00'
p24
tp25
Rp26
I01
sg1
(g2
(S'U2'
p27
I0
I1
tp28
Rp29
(I3
S'<'
p30
NNNI8
I4
I8
tp31
bS'\xefy\x00\x00\x06R\x00\x00'
p32
tp33
Rp34
I01
sg1
(g2
(S'U2'
p35
I0
I1
tp36
Rp37
(I3
S'<'
p38
NNNI8
I4
I8
tp39
bS'WY\x00\x00\x10\x99\x00\x00'
p40
tp41
Rp42
I01
sg1
(g2
(S'U2'
p43
I0
I1
tp44
Rp45
(I3
S'<'
p46
NNNI8
I4
I8
tp47
bS',g\x00\x00\x97^\x00\x00'
p48
tp49
Rp50
I01
sg1
(g2
(S'U2'
p51
I0
I1
tp52
Rp53
(I3
S'<'
p54
NNNI8
I4
I8
tp55
bS'\xbe\x8b\x00\x00\xa1\x8b\x00\x00'
p56
tp57
Rp58
I01
sg1
(g2
(S'U2'
p59
I0
I1
tp60
Rp61
(I3
S'<'
p62
NNNI8
I4
I8
tp63
bS'~\x98\x00\x00\xee\x95\x00\x00'
p64
tp65
Rp66
I01
sg1
(g2
(S'U4'
p67
I0
I1
tp68
Rp69
(I3
S'<'
p70
NNNI16
I4
I8
tp71
bS'pN\x00\x00\x00N\x00\x00\x01\x90\x00\x00\x00N\x00\x00'
p72
tp73
Rp74
I01
sg1
(g2
(S'U2'
p75
I0
I1
tp76
Rp77
(I3
S'<'
p78
NNNI8
I4
I8
tp79
bS'\xa8T\x00\x00\xe2\x8b\x00\x00'
p80
tp81
Rp82
I01
sg1
(g2
(S'U2'
p83
I0
I1
tp84
Rp85
(I3
S'<'
p86
NNNI8
I4
I8
tp87
bS'Kb\x00\x00:g\x00\x00'
p88
tp89
Rp90
I01
sg1
(g2
(S'U2'
p91
I0
I1
tp92
Rp93
(I3
S'<'
p94
NNNI8
I4
I8
tp95
bS'\x1fw\x00\x00\x84v\x00\x00'
p96
tp97
Rp98
I01
sg1
(g2
(S'U10'
p99
I0
I1
tp100
Rp101
(I3
S'<'
p102
NNNI40
I4
I8
tp103
bS'x\x00\x00\x00x\x00\x00\x00x\x00\x00\x00x\x00\x00\x00x\x00\x00\x00x\x00\x00\x00x\x00\x00\x00x\x00\x00\x00x\x00\x00\x00x\x00\x00\x00'
p104
tp105
Rp106
I01
sg1
(g2
(S'U2'
p107
I0
I1
tp108
Rp109
(I3
S'<'
p110
NNNI8
I4
I8
tp111
bS'\x07N\x00\x00w\x8d\x00\x00'
p112
tp113
Rp114
I01
sg1
(g2
(S'U1'
p115
I0
I1
tp116
Rp117
(I3
S'<'
p118
NNNI4
I4
I8
tp119
bS' \x00\x00\x00'
p120
tp121
Rp122
I01
sg1
(g2
(S'U2'
p123
I0
I1
tp124
Rp125
(I3
S'<'
p126
NNNI8
I4
I8
tp127
bS'\xde\x98\x00\x00:g\x00\x00'
p128
tp129
Rp130
I01
sg1
(g2
(S'U2'
p131
I0
I1
tp132
Rp133
(I3
S'<'
p134
NNNI8
I4
I8
tp135
bS'`\x8d\x00\x00\x01\x90\x00\x00'
p136
tp137
Rp138
I01
sg1
(g2
(S'U2'
p139
I0
I1
tp140
Rp141
(I3
S'<'
p142
NNNI8
I4
I8
tp143
bS'2\x00\x00\x000\x00\x00\x00'
p144
tp145
Rp146
I01
sg1
(g2
(S'U1'
p147
I0
I1
tp148
Rp149
(I3
S'<'
p150
NNNI4
I4
I8
tp151
bS'\xb0s\x00\x00'
p152
tp153
Rp154
I01
sg1
(g2
(S'U2'
p155
I0
I1
tp156
Rp157
(I3
S'<'
p158
NNNI8
I4
I8
tp159
bS'\x84\x98\x00\x00\xa6~\x00\x00'
p160
tp161
Rp162
I01
sg1
(g2
(S'U1'
p163
I0
I1
tp164
Rp165
(I3
S'<'
p166
NNNI4
I4
I8
tp167
bS'\xabN\x00\x00'
p168
tp169
Rp170
I01
sg1
(g2
(S'U2'
p171
I0
I1
tp172
Rp173
(I3
S'<'
p174
NNNI8
I4
I8
tp175
bS'\x00\x95\x00\x00.U\x00\x00'
p176
tp177
Rp178
I01
sg1
(g2
(S'U2'
p179
I0
I1
tp180
Rp181
(I3
S'<'
p182
NNNI8
I4
I8
tp183
bS'\ta\x00\x00\xeb_\x00\x00'
p184
tp185
Rp186
I01
sg1
(g2
(S'U2'
p187
I0
I1
tp188
Rp189
(I3
S'<'
p190
NNNI8
I4
I8
tp191
bS'\x9d\x98\x00\x00\xa6^\x00\x00'
p192
tp193
Rp194
I01
sg1
(g2
(S'U2'
p195
I0
I1
tp196
Rp197
(I3
S'<'
p198
NNNI8
I4
I8
tp199
bS'\xc5e\x00\x008n\x00\x00'
p200
tp201
Rp202
I01
sg1
(g2
(S'U1'
p203
I0
I1
tp204
Rp205
(I3
S'<'
p206
NNNI4
I4
I8
tp207
bS'\x08g\x00\x00'
p208
tp209
Rp210
I01
sg1
(g2
(S'U4'
p211
I0
I1
tp212
Rp213
(I3
S'<'
p214
NNNI16
I4
I8
tp215
bS'2\x00\x00\x000\x00\x00\x001\x00\x00\x005\x00\x00\x00'
p216
tp217
Rp218
I01
sg1
(g2
(S'U2'
p219
I0
I1
tp220
Rp221
(I3
S'<'
p222
NNNI8
I4
I8
tp223
bS'`O\x00\x00}Y\x00\x00'
p224
tp225
Rp226
I01
sg1
(g2
(S'U2'
p227
I0
I1
tp228
Rp229
(I3
S'<'
p230
NNNI8
I4
I8
tp231
bS'\xca`\x00\x00\x9cU\x00\x00'
p232
tp233
Rp234
I01
sg1
(g2
(S'U4'
p235
I0
I1
tp236
Rp237
(I3
S'<'
p238
NNNI16
I4
I8
tp239
bS'\xb0e\x00\x00t^\x00\x00\xeb_\x00\x00PN\x00\x00'
p240
tp241
Rp242
I01
sg1
(g2
(S'U2'
p243
I0
I1
tp244
Rp245
(I3
S'<'
p246
NNNI8
I4
I8
tp247
bS'\xdb\x8f\x00\x00\x97^\x00\x00'
p248
tp249
Rp250
I01
sg1
(g2
(S'U2'
p251
I0
I1
tp252
Rp253
(I3
S'<'
p254
NNNI8
I4
I8
tp255
bS'\x00_\x00\x00\xfe\x8b\x00\x00'
p256
tp257
Rp258
I01
sg1
(g2
(S'U2'
p259
I0
I1
tp260
Rp261
(I3
S'<'
p262
NNNI8
I4
I8
tp263
bS'\xb5b\x00\x00\xbcb\x00\x00'
p264
tp265
Rp266
I01
sg1
(g2
(S'U8'
p267
I0
I1
tp268
Rp269
(I3
S'<'
p270
NNNI32
I4
I8
tp271
bS'x\x00\x00\x00x\x00\x00\x00x\x00\x00\x00x\x00\x00\x00x\x00\x00\x00x\x00\x00\x00x\x00\x00\x00x\x00\x00\x00'
p272
tp273
Rp274
I01
sg1
(g2
(S'U2'
p275
I0
I1
tp276
Rp277
(I3
S'<'
p278
NNNI8
I4
I8
tp279
bS'\xa2b\x00\x00-\x8d\x00\x00'
p280
tp281
Rp282
I01
sg1
(g2
(S'U2'
p283
I0
I1
tp284
Rp285
(I3
S'<'
p286
NNNI8
I4
I8
tp287
bS'5u\x00\x00\x11\x81\x00\x00'
p288
tp289
Rp290
I01
sg1
(g2
(S'U2'
p291
I0
I1
tp292
Rp293
(I3
S'<'
p294
NNNI8
I4
I8
tp295
bS'\xc1T\x00\x00Lr\x00\x00'
p296
tp297
Rp298
I01
sg1
(g2
(S'U2'
p299
I0
I1
tp300
Rp301
(I3
S'<'
p302
NNNI8
I4
I8
tp303
bS'-N\x00\x00\xfdV\x00\x00'
p304
tp305
Rp306
I01
sg1
(g2
(S'U3'
p307
I0
I1
tp308
Rp309
(I3
S'<'
p310
NNNI12
I4
I8
tp311
bS'\xb0e\x00\x00t^\x00\x00}Y\x00\x00'
p312
tp313
Rp314
I01
sg1
(g2
(S'U2'
p315
I0
I1
tp316
Rp317
(I3
S'<'
p318
NNNI8
I4
I8
tp319
bS'\xa2[\x00\x007b\x00\x00'
p320
tp321
Rp322
I01
sg1
(g2
(S'U3'
p323
I0
I1
tp324
Rp325
(I3
S'<'
p326
NNNI12
I4
I8
tp327
bS'\x01\x80\x00\x00\xa2[\x00\x007b\x00\x00'
p328
tp329
Rp330
I01
sg1
(g2
(S'U2'
p331
I0
I1
tp332
Rp333
(I3
S'<'
p334
NNNI8
I4
I8
tp335
bS'~\x98\x00\x00\xa2[\x00\x00'
p336
tp337
Rp338
I01
sg1
(g2
(S'U2'
p339
I0
I1
tp340
Rp341
(I3
S'<'
p342
NNNI8
I4
I8
tp343
bS'\x9eR\x00\x00\x06t\x00\x00'
p344
tp345
Rp346
I01
sg1
(g2
(S'U2'
p347
I0
I1
tp348
Rp349
(I3
S'<'
p350
NNNI8
I4
I8
tp351
bS'\xedz\x00\x00\xda\x8b\x00\x00'
p352
tp353
Rp354
I01
sg1
(g2
(S'U2'
p355
I0
I1
tp356
Rp357
(I3
S'<'
p358
NNNI8
I4
I8
tp359
bS'\x13N\x00\x00\x1aN\x00\x00'
p360
tp361
Rp362
I01
sg1
(g2
(S'U2'
p363
I0
I1
tp364
Rp365
(I3
S'<'
p366
NNNI8
I4
I8
tp367
bS'?e\x00\x00\x9c^\x00\x00'
p368
tp369
Rp370
I01
sg1
(g2
(S'U1'
p371
I0
I1
tp372
Rp373
(I3
S'<'
p374
NNNI4
I4
I8
tp375
bS'\xe5e\x00\x00'
p376
tp377
Rp378
I01
sg1
(g2
(S'U2'
p379
I0
I1
tp380
Rp381
(I3
S'<'
p382
NNNI8
I4
I8
tp383
bS'\xb0e\x00\x00t^\x00\x00'
p384
tp385
Rp386
I01
sg1
(g2
(S'U2'
p387
I0
I1
tp388
Rp389
(I3
S'<'
p390
NNNI8
I4
I8
tp391
bS'\x1fw\x00\x00\xf8v\x00\x00'
p392
tp393
Rp394
I01
sg1
(g2
(S'U2'
p395
I0
I1
tp396
Rp397
(I3
S'<'
p398
NNNI8
I4
I8
tp399
bS'\x8a\x7f\x00\x00t^\x00\x00'
p400
tp401
Rp402
I01
sg1
(g2
(S'U2'
p403
I0
I1
tp404
Rp405
(I3
S'<'
p406
NNNI8
I4
I8
tp407
bS'vY\x00\x00\x89|\x00\x00'
p408
tp409
Rp410
I01
sg1
(g2
(S'U2'
p411
I0
I1
tp412
Rp413
(I3
S'<'
p414
NNNI8
I4
I8
tp415
bS'\xccS\x00\x00\rP\x00\x00'
p416
tp417
Rp418
I01
sg1
(g2
(S'U2'
p419
I0
I1
tp420
Rp421
(I3
S'<'
p422
NNNI8
I4
I8
tp423
bS'7b\x00\x00\x8bW\x00\x00'
p424
tp425
Rp426
I01
sg1
(g2
(S'U2'
p427
I0
I1
tp428
Rp429
(I3
S'<'
p430
NNNI8
I4
I8
tp431
bS'x\x00\x00\x00x\x00\x00\x00'
p432
tp433
Rp434
I01
sg1
(g2
(S'U2'
p435
I0
I1
tp436
Rp437
(I3
S'<'
p438
NNNI8
I4
I8
tp439
bS'\x98b\x00\x00w\x8d\x00\x00'
p440
tp441
Rp442
I01
sg1
(g2
(S'U1'
p443
I0
I1
tp444
Rp445
(I3
S'<'
p446
NNNI4
I4
I8
tp447
bS'\xf3`\x00\x00'
p448
tp449
Rp450
I01
sg1
(g2
(S'U2'
p451
I0
I1
tp452
Rp453
(I3
S'<'
p454
NNNI8
I4
I8
tp455
bS'sQ\x00\x00\xe8l\x00\x00'
p456
tp457
Rp458
I01
sg1
(g2
(S'U4'
p459
I0
I1
tp460
Rp461
(I3
S'<'
p462
NNNI16
I4
I8
tp463
bS'\x82\x82\x00\x00\xe5e\x00\x00\xeb_\x00\x00PN\x00\x00'
p464
tp465
Rp466
I01
sg1
(g2
(S'U2'
p467
I0
I1
tp468
Rp469
(I3
S'<'
p470
NNNI8
I4
I8
tp471
bS'lQ\x00\x00\xf8S\x00\x00'
p472
tp473
Rp474
I01
sg1
(g2
(S'U2'
p475
I0
I1
tp476
Rp477
(I3
S'<'
p478
NNNI8
I4
I8
tp479
bS'<y\x00\x00\xc1T\x00\x00'
p480
tp481
Rp482
I01
sg1
(g2
(S'U4'
p483
I0
I1
tp484
Rp485
(I3
S'<'
p486
NNNI16
I4
I8
tp487
bS'\xe1O\x00\x00(u\x00\x007\x8d\x00\x00>k\x00\x00'
p488
tp489
Rp490
I01
sg1
(g2
(S'U1'
p491
I0
I1
tp492
Rp493
(I3
S'<'
p494
NNNI4
I4
I8
tp495
bS'x\x00\x00\x00'
p496
tp497
Rp498
I01
sg1
(g2
(S'U2'
p499
I0
I1
tp500
Rp501
(I3
S'<'
p502
NNNI8
I4
I8
tp503
bS'\xc5\x88\x00\x00p\x99\x00\x00'
p504
tp505
Rp506
I01
sg1
(g2
(S'U2'
p507
I0
I1
tp508
Rp509
(I3
S'<'
p510
NNNI8
I4
I8
tp511
bS'5u\x00\x00\xdd\x8b\x00\x00'
p512
tp513
Rp514
I01
sg1
(g2
(S'U2'
p515
I0
I1
tp516
Rp517
(I3
S'<'
p518
NNNI8
I4
I8
tp519
bS'\xd1S\x00\x00\xb0s\x00\x00'
p520
tp521
Rp522
I01
sg1
(g2
(S'U11'
p523
I0
I1
tp524
Rp525
(I3
S'<'
p526
NNNI44
I4
I8
tp527
bS'x\x00\x00\x00x\x00\x00\x00x\x00\x00\x00x\x00\x00\x00x\x00\x00\x00x\x00\x00\x00x\x00\x00\x00x\x00\x00\x00x\x00\x00\x00x\x00\x00\x00x\x00\x00\x00'
p528
tp529
Rp530
I01
sg1
(g2
(S'U1'
p531
I0
I1
tp532
Rp533
(I3
S'<'
p534
NNNI4
I4
I8
tp535
bS'\x97^\x00\x00'
p536
tp537
Rp538
I01
sg1
(g2
(S'U1'
p539
I0
I1
tp540
Rp541
(I3
S'<'
p542
NNNI4
I4
I8
tp543
bS'\x07N\x00\x00'
p544
tp545
Rp546
I01
sg1
(g2
(S'U2'
p547
I0
I1
tp548
Rp549
(I3
S'<'
p550
NNNI8
I4
I8
tp551
bS'\xa8`\x00\x00}Y\x00\x00'
p552
tp553
Rp554
I01
sg1
(g2
(S'U1'
p555
I0
I1
tp556
Rp557
(I3
S'<'
p558
NNNI4
I4
I8
tp559
bS'\xeds\x00\x00'
p560
tp561
Rp562
I01
sg1
(g2
(S'U2'
p563
I0
I1
tp564
Rp565
(I3
S'<'
p566
NNNI8
I4
I8
tp567
bS'\xdeV\x00\x00\x88\x99\x00\x00'
p568
tp569
Rp570
I01
sg1
(g2
(S'U3'
p571
I0
I1
tp572
Rp573
(I3
S'<'
p574
NNNI12
I4
I8
tp575
bS'}Y\x00\x00\x88m\x00\x00o`\x00\x00'
p576
tp577
Rp578
I01
sg1
(g2
(S'U2'
p579
I0
I1
tp580
Rp581
(I3
S'<'
p582
NNNI8
I4
I8
tp583
bS'\xabN\x00\x00\xd7S\x00\x00'
p584
tp585
Rp586
I01
sg1
(g2
(S'U2'
p587
I0
I1
tp588
Rp589
(I3
S'<'
p590
NNNI8
I4
I8
tp591
bS'\xb6[\x00\x005u\x00\x00'
p592
tp593
Rp594
I01
sg1
(g2
(S'U2'
p595
I0
I1
tp596
Rp597
(I3
S'<'
p598
NNNI8
I4
I8
tp599
bS'Ym\x00\x00_l\x00\x00'
p600
tp601
Rp602
I01
sg1
(g2
(S'U2'
p603
I0
I1
tp604
Rp605
(I3
S'<'
p606
NNNI8
I4
I8
tp607
bS'sO\x00\x00\x82\x82\x00\x00'
p608
tp609
Rp610
I01
sg1
(g2
(S'U1'
p611
I0
I1
tp612
Rp613
(I3
S'<'
p614
NNNI4
I4
I8
tp615
bS'\x98b\x00\x00'
p616
tp617
Rp618
I01
sg1
(g2
(S'U7'
p619
I0
I1
tp620
Rp621
(I3
S'<'
p622
NNNI28
I4
I8
tp623
bS'x\x00\x00\x00x\x00\x00\x00x\x00\x00\x00x\x00\x00\x00x\x00\x00\x00x\x00\x00\x00x\x00\x00\x00'
p624
tp625
Rp626
I01
sg1
(g2
(S'U2'
p627
I0
I1
tp628
Rp629
(I3
S'<'
p630
NNNI8
I4
I8
tp631
bS'MQ\x00\x009\x8d\x00\x00'
p632
tp633
Rp634
I01
sg1
(g2
(S'U5'
p635
I0
I1
tp636
Rp637
(I3
S'<'
p638
NNNI20
I4
I8
tp639
bS'x\x00\x00\x00x\x00\x00\x00x\x00\x00\x00x\x00\x00\x00x\x00\x00\x00'
p640
tp641
Rp642
I01
sg1
(g2
(S'U3'
p643
I0
I1
tp644
Rp645
(I3
S'<'
p646
NNNI12
I4
I8
tp647
bS'\x00g\x00\x00NO\x00\x00\xf7N\x00\x00'
p648
tp649
Rp650
I01
sg1
(g2
(S'U2'
p651
I0
I1
tp652
Rp653
(I3
S'<'
p654
NNNI8
I4
I8
tp655
bS'\xa5b\x00\x00\rT\x00\x00'
p656
tp657
Rp658
I01
sg1
(g2
(S'U3'
p659
I0
I1
tp660
Rp661
(I3
S'<'
p662
NNNI12
I4
I8
tp663
bS'T\x80\x00\x00\xfb|\x00\x00\xbaN\x00\x00'
p664
tp665
Rp666
I01
sg1
(g2
(S'U2'
p667
I0
I1
tp668
Rp669
(I3
S'<'
p670
NNNI8
I4
I8
tp671
bS'kQ\x00\x00\x98b\x00\x00'
p672
tp673
Rp674
I01
sg1
(g2
(S'U4'
p675
I0
I1
tp676
Rp677
(I3
S'<'
p678
NNNI16
I4
I8
tp679
bS'\x18O\x00\x00\xe0`\x00\x00;m\x00\x00\xa8R\x00\x00'
p680
tp681
Rp682
I01
sg1
(g2
(S'U2'
p683
I0
I1
tp684
Rp685
(I3
S'<'
p686
NNNI8
I4
I8
tp687
bS'\x85\x8d\x00\x00<P\x00\x00'
p688
tp689
Rp690
I01
sg1
(g2
(S'U2'
p691
I0
I1
tp692
Rp693
(I3
S'<'
p694
NNNI8
I4
I8
tp695
bS'\xcf~\x00\x00\x06t\x00\x00'
p696
tp697
Rp698
I01
sg1
(g2
(S'U1'
p699
I0
I1
tp700
Rp701
(I3
S'<'
p702
NNNI4
I4
I8
tp703
bS'-\x8d\x00\x00'
p704
tp705
Rp706
I01
sg1
(g2
(S'U2'
p707
I0
I1
tp708
Rp709
(I3
S'<'
p710
NNNI8
I4
I8
tp711
bS'IQ\x00\x004N\x00\x00'
p712
tp713
Rp714
I01
sg1
(g2
(S'U2'
p715
I0
I1
tp716
Rp717
(I3
S'<'
p718
NNNI8
I4
I8
tp719
bS'\x85\x8f\x00\x00\xfc[\x00\x00'
p720
tp721
Rp722
I01
sg1
(g2
(S'U3'
p723
I0
I1
tp724
Rp725
(I3
S'<'
p726
NNNI12
I4
I8
tp727
bS'CQ\x00\x00\xb5[\x00\x00\x82\x82\x00\x00'
p728
tp729
Rp730
I01
sg1
(g2
(S'U2'
p731
I0
I1
tp732
Rp733
(I3
S'<'
p734
NNNI8
I4
I8
tp735
bS'c\x88\x00\x00\xdcg\x00\x00'
p736
tp737
Rp738
I01
sg1
(g2
(S'U4'
p739
I0
I1
tp740
Rp741
(I3
S'<'
p742
NNNI16
I4
I8
tp743
bS':N\x00\x00\xa8`\x00\x00\rg\x00\x00\xa1R\x00\x00'
p744
tp745
Rp746
I01
sg1
(g2
(S'U2'
p747
I0
I1
tp748
Rp749
(I3
S'<'
p750
NNNI8
I4
I8
tp751
bS'\x1fa\x00\x00"\x8c\x00\x00'
p752
tp753
Rp754
I01
sg1
(g2
(S'U1'
p755
I0
I1
tp756
Rp757
(I3
S'<'
p758
NNNI4
I4
I8
tp759
bS'?b\x00\x00'
p760
tp761
Rp762
I01
sg1
(g2
(S'U2'
p763
I0
I1
tp764
Rp765
(I3
S'<'
p766
NNNI8
I4
I8
tp767
bS'\xb0s\x00\x00\xd1\x91\x00\x00'
p768
tp769
Rp770
I01
sg1
(g2
(S'U1'
p771
I0
I1
tp772
Rp773
(I3
S'<'
p774
NNNI4
I4
I8
tp775
bS'\xf7S\x00\x00'
p776
tp777
Rp778
I01
sg1
(g2
(S'U2'
p779
I0
I1
tp780
Rp781
(I3
S'<'
p782
NNNI8
I4
I8
tp783
bS'sY\x00\x00\xbaN\x00\x00'
p784
tp785
Rp786
I01
sg1
(g2
(S'U2'
p787
I0
I1
tp788
Rp789
(I3
S'<'
p790
NNNI8
I4
I8
tp791
bS'\x86\x98\x00\x00\xd6S\x00\x00'
p792
tp793
Rp794
I01
sg1
(g2
(S'U2'
p795
I0
I1
tp796
Rp797
(I3
S'<'
p798
NNNI8
I4
I8
tp799
bS'yr\x00\x00\xe0`\x00\x00'
p800
tp801
Rp802
I01
sg1
(g2
(S'U2'
p803
I0
I1
tp804
Rp805
(I3
S'<'
p806
NNNI8
I4
I8
tp807
bS'_l\x00\x00\xcf\x82\x00\x00'
p808
tp809
Rp810
I01
sg1
(g2
(S'U1'
p811
I0
I1
tp812
Rp813
(I3
S'<'
p814
NNNI4
I4
I8
tp815
bS'MQ\x00\x00'
p816
tp817
Rp818
I01
sg1
(g2
(S'U3'
p819
I0
I1
tp820
Rp821
(I3
S'<'
p822
NNNI12
I4
I8
tp823
bS'\tN\x00\x00kQ\x00\x00\x82\x82\x00\x00'
p824
tp825
Rp826
I01
sg1
(g2
(S'U2'
p827
I0
I1
tp828
Rp829
(I3
S'<'
p830
NNNI8
I4
I8
tp831
bS'0W\x00\x00@W\x00\x00'
p832
tp833
Rp834
I01
sg1
(g2
(S'U2'
p835
I0
I1
tp836
Rp837
(I3
S'<'
p838
NNNI8
I4
I8
tp839
bS';N\x00\x00%\x84\x00\x00'
p840
tp841
Rp842
I01
sg1
(g2
(S'U4'
p843
I0
I1
tp844
Rp845
(I3
S'<'
p846
NNNI16
I4
I8
tp847
bS'T\x80\x00\x00\xfb|\x00\x005u\x00\x00\xdd\x8b\x00\x00'
p848
tp849
Rp850
I01
sg1
(g2
(S'U2'
p851
I0
I1
tp852
Rp853
(I3
S'<'
p854
NNNI8
I4
I8
tp855
bS'eg\x00\x005u\x00\x00'
p856
tp857
Rp858
I01
sg1
(g2
(S'U19'
p859
I0
I1
tp860
Rp861
(I3
S'<'
p862
NNNI76
I4
I8
tp863
bS'x\x00\x00\x00x\x00\x00\x00x\x00\x00\x00x\x00\x00\x00x\x00\x00\x00x\x00\x00\x00x\x00\x00\x00x\x00\x00\x00x\x00\x00\x00x\x00\x00\x00x\x00\x00\x00x\x00\x00\x00x\x00\x00\x00x\x00\x00\x00x\x00\x00\x00x\x00\x00\x00x\x00\x00\x00x\x00\x00\x00x\x00\x00\x00'
p864
tp865
Rp866
I01
sg1
(g2
(S'U1'
p867
I0
I1
tp868
Rp869
(I3
S'<'
p870
NNNI4
I4
I8
tp871
bS']y\x00\x00'
p872
tp873
Rp874
I01
sg1
(g2
(S'U2'
p875
I0
I1
tp876
Rp877
(I3
S'<'
p878
NNNI8
I4
I8
tp879
bS'yr\x00\x00\xf7N\x00\x00'
p880
tp881
Rp882
I01
sg1
(g2
(S'U2'
p883
I0
I1
tp884
Rp885
(I3
S'<'
p886
NNNI8
I4
I8
tp887
bS'\xb6[\x00\x00\x7f\x95\x00\x00'
p888
tp889
Rp890
I01
sg1
(g2
(S'U1'
p891
I0
I1
tp892
Rp893
(I3
S'<'
p894
NNNI4
I4
I8
tp895
bS'\xe0`\x00\x00'
p896
tp897
Rp898
I01
sg1
(g2
(S'U5'
p899
I0
I1
tp900
Rp901
(I3
S'<'
p902
NNNI20
I4
I8
tp903
bS'\tN\x00\x00kQ\x00\x00\x87Y\x00\x00sY\x00\x00\x82\x82\x00\x00'
p904
tp905
Rp906
I01
sg1
(g2
(S'U2'
p907
I0
I1
tp908
Rp909
(I3
S'<'
p910
NNNI8
I4
I8
tp911
bS'\xae_\x00\x00o\x8f\x00\x00'
p912
tp913
Rp914
I01
sg1
(g2
(S'U2'
p915
I0
I1
tp916
Rp917
(I3
S'<'
p918
NNNI8
I4
I8
tp919
bS'\xa4b\x00\x00\x06t\x00\x00'
p920
tp921
Rp922
I01
sg1
(g2
(S'U2'
p923
I0
I1
tp924
Rp925
(I3
S'<'
p926
NNNI8
I4
I8
tp927
bS'(\x8d\x00\x00\x91u\x00\x00'
p928
tp929
Rp930
I01
sg1
(g2
(S'U2'
p931
I0
I1
tp932
Rp933
(I3
S'<'
p934
NNNI8
I4
I8
tp935
bS';S\x00\x00\x1fu\x00\x00'
p936
tp937
Rp938
I01
sg1
(g2
(S'U2'
p939
I0
I1
tp940
Rp941
(I3
S'<'
p942
NNNI8
I4
I8
tp943
bS'\n\\\x00\x00le\x00\x00'
p944
tp945
Rp946
I01
sg1
(g2
(S'U3'
p947
I0
I1
tp948
Rp949
(I3
S'<'
p950
NNNI12
I4
I8
tp951
bS'\x00N\x00\x00\xf9[\x00\x00\x00N\x00\x00'
p952
tp953
Rp954
I01
sg1
(g2
(S'U1'
p955
I0
I1
tp956
Rp957
(I3
S'<'
p958
NNNI4
I4
I8
tp959
bS's^\x00\x00'
p960
tp961
Rp962
I01
sg1
(g2
(S'U3'
p963
I0
I1
tp964
Rp965
(I3
S'<'
p966
NNNI12
I4
I8
tp967
bS'\x87Y\x00\x00sY\x00\x00\x82\x82\x00\x00'
p968
tp969
Rp970
I01
sg1
(g2
(S'U2'
p971
I0
I1
tp972
Rp973
(I3
S'<'
p974
NNNI8
I4
I8
tp975
bS'\xe6\x8b\x00\x00\xc5`\x00\x00'
p976
tp977
Rp978
I01
sg1
(g2
(S'U4'
p979
I0
I1
tp980
Rp981
(I3
S'<'
p982
NNNI16
I4
I8
tp983
bS'\xa2[\x00\x007b\x00\x00\xcf~\x00\x00\x06t\x00\x00'
p984
tp985
Rp986
I01
sg1
(g2
(S'U1'
p987
I0
I1
tp988
Rp989
(I3
S'<'
p990
NNNI4
I4
I8
tp991
bS'\xf6e\x00\x00'
p992
tp993
Rp994
I01
sg1
(g2
(S'U2'
p995
I0
I1
tp996
Rp997
(I3
S'<'
p998
NNNI8
I4
I8
tp999
bS'l\x91\x00\x00\xbe[\x00\x00'
p1000
tp1001
Rp1002
I01
sg1
(g2
(S'U2'
p1003
I0
I1
tp1004
Rp1005
(I3
S'<'
p1006
NNNI8
I4
I8
tp1007
bS'\xe1n\x00\x00\x9d\x98\x00\x00'
p1008
tp1009
Rp1010
I01
sg1
(g2
(S'U2'
p1011
I0
I1
tp1012
Rp1013
(I3
S'<'
p1014
NNNI8
I4
I8
tp1015
bS'\xa8c\x00\x00\xfaQ\x00\x00'
p1016
tp1017
Rp1018
I01
sg1
(g2
(S'U1'
p1019
I0
I1
tp1020
Rp1021
(I3
S'<'
p1022
NNNI4
I4
I8
tp1023
bS'\x00\x97\x00\x00'
p1024
tp1025
Rp1026
I01
sg1
(g2
(S'U2'
p1027
I0
I1
tp1028
Rp1029
(I3
S'<'
p1030
NNNI8
I4
I8
tp1031
bS'7\x8d\x00\x00>k\x00\x00'
p1032
tp1033
Rp1034
I01
sg1
(g2
(S'U2'
p1035
I0
I1
tp1036
Rp1037
(I3
S'<'
p1038
NNNI8
I4
I8
tp1039
bS'P\x96\x00\x00\xf6e\x00\x00'
p1040
tp1041
Rp1042
I01
sg1
(g2
(S'U2'
p1043
I0
I1
tp1044
Rp1045
(I3
S'<'
p1046
NNNI8
I4
I8
tp1047
bS'>e\x00\x00>k\x00\x00'
p1048
tp1049
Rp1050
I01
sg1
(g2
(S'U2'
p1051
I0
I1
tp1052
Rp1053
(I3
S'<'
p1054
NNNI8
I4
I8
tp1055
bS'\xe2V\x00\x00-\x8d\x00\x00'
p1056
tp1057
Rp1058
I01
sg1
(g2
(S'U3'
p1059
I0
I1
tp1060
Rp1061
(I3
S'<'
p1062
NNNI12
I4
I8
tp1063
bS'\x16S\x00\x00\x86Y\x00\x00\xc1T\x00\x00'
p1064
tp1065
Rp1066
I01
sg1
(g2
(S'U1'
p1067
I0
I1
tp1068
Rp1069
(I3
S'<'
p1070
NNNI4
I4
I8
tp1071
bS'\xf7\x8b\x00\x00'
p1072
tp1073
Rp1074
I01
sg1
(g2
(S'U2'
p1075
I0
I1
tp1076
Rp1077
(I3
S'<'
p1078
NNNI8
I4
I8
tp1079
bS'S_\x00\x00)Y\x00\x00'
p1080
tp1081
Rp1082
I01
sg1
(g2
(S'U2'
p1083
I0
I1
tp1084
Rp1085
(I3
S'<'
p1086
NNNI8
I4
I8
tp1087
bS'\xb0e\x00\x00\x01\x80\x00\x00'
p1088
tp1089
Rp1090
I01
sg1
(g2
(S'U2'
p1091
I0
I1
tp1092
Rp1093
(I3
S'<'
p1094
NNNI8
I4
I8
tp1095
bS'\x8e\x7f\x00\x00=N\x00\x00'
p1096
tp1097
Rp1098
I01
sg1
(g2
(S'U2'
p1099
I0
I1
tp1100
Rp1101
(I3
S'<'
p1102
NNNI8
I4
I8
tp1103
bS'eg\x00\x004N\x00\x00'
p1104
tp1105
Rp1106
I01
sg1
(g2
(S'U2'
p1107
I0
I1
tp1108
Rp1109
(I3
S'<'
p1110
NNNI8
I4
I8
tp1111
bS'\x1fg\x00\x00\x85_\x00\x00'
p1112
tp1113
Rp1114
I01
sg1
(g2
(S'U2'
p1115
I0
I1
tp1116
Rp1117
(I3
S'<'
p1118
NNNI8
I4
I8
tp1119
bS'\xf7N\x00\x00<P\x00\x00'
p1120
tp1121
Rp1122
I01
sg1
(g2
(S'U2'
p1123
I0
I1
tp1124
Rp1125
(I3
S'<'
p1126
NNNI8
I4
I8
tp1127
bS'm`\x00\x00\x19P\x00\x00'
p1128
tp1129
Rp1130
I01
sg1
(g2
(S'U3'
p1131
I0
I1
tp1132
Rp1133
(I3
S'<'
p1134
NNNI12
I4
I8
tp1135
bS'"k\x00\x00\xce\x8f\x00\x00\xa8`\x00\x00'
p1136
tp1137
Rp1138
I01
sg1
(g2
(S'U2'
p1139
I0
I1
tp1140
Rp1141
(I3
S'<'
p1142
NNNI8
I4
I8
tp1143
bS'\xb0e\x00\x00>k\x00\x00'
p1144
tp1145
Rp1146
I01
sg1
(g2
(S'U2'
p1147
I0
I1
tp1148
Rp1149
(I3
S'<'
p1150
NNNI8
I4
I8
tp1151
bS'\xf0X\x00\x00\xf3\x97\x00\x00'
p1152
tp1153
Rp1154
I01
sg1
(g2
(S'U2'
p1155
I0
I1
tp1156
Rp1157
(I3
S'<'
p1158
NNNI8
I4
I8
tp1159
bS'T{\x00\x00"\x8c\x00\x00'
p1160
tp1161
Rp1162
I01
sg1
(g2
(S'U2'
p1163
I0
I1
tp1164
Rp1165
(I3
S'<'
p1166
NNNI8
I4
I8
tp1167
bS'\x85Q\x00\x00c\x88\x00\x00'
p1168
tp1169
Rp1170
I01
sg1
(g2
(S'U1'
p1171
I0
I1
tp1172
Rp1173
(I3
S'<'
p1174
NNNI4
I4
I8
tp1175
bS'\xb5b\x00\x00'
p1176
tp1177
Rp1178
I01
sg1
(g2
(S'U2'
p1179
I0
I1
tp1180
Rp1181
(I3
S'<'
p1182
NNNI8
I4
I8
tp1183
bS'-\x8d\x00\x00pN\x00\x00'
p1184
tp1185
Rp1186
I01
sg1
(g2
(S'U2'
p1187
I0
I1
tp1188
Rp1189
(I3
S'<'
p1190
NNNI8
I4
I8
tp1191
bS'\xbe|\x00\x00\x8e\x7f\x00\x00'
p1192
tp1193
Rp1194
I01
sg1
(g2
(S'U2'
p1195
I0
I1
tp1196
Rp1197
(I3
S'<'
p1198
NNNI8
I4
I8
tp1199
bS'\xb0e\x00\x00%f\x00\x00'
p1200
tp1201
Rp1202
I01
sg1
(g2
(S'U2'
p1203
I0
I1
tp1204
Rp1205
(I3
S'<'
p1206
NNNI8
I4
I8
tp1207
bS'\xedp\x00\x00\xbf~\x00\x00'
p1208
tp1209
Rp1210
I01
sg1
(g2
(S'U2'
p1211
I0
I1
tp1212
Rp1213
(I3
S'<'
p1214
NNNI8
I4
I8
tp1215
bS"~v\x00\x00'\x8d\x00\x00"
p1216
tp1217
Rp1218
I01
sg1
(g2
(S'U2'
p1219
I0
I1
tp1220
Rp1221
(I3
S'<'
p1222
NNNI8
I4
I8
tp1223
bS"'Y\x00\x00\x8bW\x00\x00"
p1224
tp1225
Rp1226
I01
sg1
(g2
(S'U2'
p1227
I0
I1
tp1228
Rp1229
(I3
S'<'
p1230
NNNI8
I4
I8
tp1231
bS'%f\x00\x00\xc5\x88\x00\x00'
p1232
tp1233
Rp1234
I01
sg1
(g2
(S'U2'
p1235
I0
I1
tp1236
Rp1237
(I3
S'<'
p1238
NNNI8
I4
I8
tp1239
bS'\xd0c\x00\x00MR\x00\x00'
p1240
tp1241
Rp1242
I01
sg1
(g2
(S'U2'
p1243
I0
I1
tp1244
Rp1245
(I3
S'<'
p1246
NNNI8
I4
I8
tp1247
bS'\xc3O\x00\x00\x00\x95\x00\x00'
p1248
tp1249
Rp1250
I01
sg1
(g2
(S'U2'
p1251
I0
I1
tp1252
Rp1253
(I3
S'<'
p1254
NNNI8
I4
I8
tp1255
bS'\x82\x82\x00\x00\xe5e\x00\x00'
p1256
tp1257
Rp1258
I01
sg1
(g2
(S'U3'
p1259
I0
I1
tp1260
Rp1261
(I3
S'<'
p1262
NNNI12
I4
I8
tp1263
bS'x\x00\x00\x00x\x00\x00\x00x\x00\x00\x00'
p1264
tp1265
Rp1266
I01
sg1
(g2
(S'U1'
p1267
I0
I1
tp1268
Rp1269
(I3
S'<'
p1270
NNNI4
I4
I8
tp1271
bS'\xcfQ\x00\x00'
p1272
tp1273
Rp1274
I01
sg1
(g2
(S'U2'
p1275
I0
I1
tp1276
Rp1277
(I3
S'<'
p1278
NNNI8
I4
I8
tp1279
bS'WS\x00\x00\xacN\x00\x00'
p1280
tp1281
Rp1282
I01
sg1
(g2
(S'U3'
p1283
I0
I1
tp1284
Rp1285
(I3
S'<'
p1286
NNNI12
I4
I8
tp1287
bS'\xe6\x8b\x00\x00\xc5`\x00\x00\xf7\x8b\x00\x00'
p1288
tp1289
Rp1290
I01
sg1
(g2
(S'U2'
p1291
I0
I1
tp1292
Rp1293
(I3
S'<'
p1294
NNNI8
I4
I8
tp1295
bS'\xeb_\x00\x00PN\x00\x00'
p1296
tp1297
Rp1298
I01
sg1
(g2
(S'U2'
p1299
I0
I1
tp1300
Rp1301
(I3
S'<'
p1302
NNNI8
I4
I8
tp1303
bS')R\x00\x00o`\x00\x00'
p1304
tp1305
Rp1306
I01
sg1
(g2
(S'U2'
p1307
I0
I1
tp1308
Rp1309
(I3
S'<'
p1310
NNNI8
I4
I8
tp1311
bS'~\x81\x00\x00\xaf\x8b\x00\x00'
p1312
tp1313
Rp1314
I01
sg1
(g2
(S'U2'
p1315
I0
I1
tp1316
Rp1317
(I3
S'<'
p1318
NNNI8
I4
I8
tp1319
bS';m\x00\x00\xa8R\x00\x00'
p1320
tp1321
Rp1322
I01
sg1
(g2
(S'U2'
p1323
I0
I1
tp1324
Rp1325
(I3
S'<'
p1326
NNNI8
I4
I8
tp1327
bS'\xc5N\x00\x00P\x96\x00\x00'
p1328
tp1329
Rp1330
I01
sg1
(g2
(S'U2'
p1331
I0
I1
tp1332
Rp1333
(I3
S'<'
p1334
NNNI8
I4
I8
tp1335
bS'~v\x00\x00\xa6^\x00\x00'
p1336
tp1337
Rp1338
I01
sg1
(g2
(S'U2'
p1339
I0
I1
tp1340
Rp1341
(I3
S'<'
p1342
NNNI8
I4
I8
tp1343
bS'\xd5l\x00\x00b\x96\x00\x00'
p1344
tp1345
Rp1346
I01
sg1
(g2
(S'U1'
p1347
I0
I1
tp1348
Rp1349
(I3
S'<'
p1350
NNNI4
I4
I8
tp1351
bS'`\x8d\x00\x00'
p1352
tp1353
Rp1354
I01
sg1
(g2
(S'U2'
p1355
I0
I1
tp1356
Rp1357
(I3
S'<'
p1358
NNNI8
I4
I8
tp1359
bS'\xcbz\x00\x00\xcfQ\x00\x00'
p1360
tp1361
Rp1362
I01
sg1
(g2
(S'U2'
p1363
I0
I1
tp1364
Rp1365
(I3
S'<'
p1366
NNNI8
I4
I8
tp1367
bS'\xb6[\x00\x00\xc5\x88\x00\x00'
p1368
tp1369
Rp1370
I01
sg1
(g2
(S'U2'
p1371
I0
I1
tp1372
Rp1373
(I3
S'<'
p1374
NNNI8
I4
I8
tp1375
bS'KN\x00\x00E\x96\x00\x00'
p1376
tp1377
Rp1378
I01
sg1
(g2
(S'U2'
p1379
I0
I1
tp1380
Rp1381
(I3
S'<'
p1382
NNNI8
I4
I8
tp1383
bS'FU\x00\x00\xc1T\x00\x00'
p1384
tp1385
Rp1386
I01
sg1
(g2
(S'U4'
p1387
I0
I1
tp1388
Rp1389
(I3
S'<'
p1390
NNNI16
I4
I8
tp1391
bS'\xa8T\x00\x00\xe2\x8b\x00\x005u\x00\x00\xdd\x8b\x00\x00'
p1392
tp1393
Rp1394
I01
sg1
(g2
(S'U2'
p1395
I0
I1
tp1396
Rp1397
(I3
S'<'
p1398
NNNI8
I4
I8
tp1399
bS'\xfbN\x00\x00\x0fa\x00\x00'
p1400
tp1401
Rp1402
I01
sg1
(g2
(S'U2'
p1403
I0
I1
tp1404
Rp1405
(I3
S'<'
p1406
NNNI8
I4
I8
tp1407
bS'\x1fg\x00\x00\xf4\x95\x00\x00'
p1408
tp1409
Rp1410
I01
sg1
(g2
(S'U2'
p1411
I0
I1
tp1412
Rp1413
(I3
S'<'
p1414
NNNI8
I4
I8
tp1415
bS'kp\x00\x00\xedp\x00\x00'
p1416
tp1417
Rp1418
I01
sg1
(g2
(S'U1'
p1419
I0
I1
tp1420
Rp1421
(I3
S'<'
p1422
NNNI4
I4
I8
tp1423
bS'<y\x00\x00'
p1424
tp1425
Rp1426
I01
sg1
(g2
(S'U2'
p1427
I0
I1
tp1428
Rp1429
(I3
S'<'
p1430
NNNI8
I4
I8
tp1431
bS'\xcf\x82\x00\x00\xde]\x00\x00'
p1432
tp1433
Rp1434
I01
sg1
(g2
(S'U2'
p1435
I0
I1
tp1436
Rp1437
(I3
S'<'
p1438
NNNI8
I4
I8
tp1439
bS'\x9cU\x00\x00\xce\x8f\x00\x00'
p1440
tp1441
Rp1442
I01
sg1
(g2
(S'U2'
p1443
I0
I1
tp1444
Rp1445
(I3
S'<'
p1446
NNNI8
I4
I8
tp1447
bS'sS\x00\x00\xefS\x00\x00'
p1448
tp1449
Rp1450
I01
sg1
(g2
(S'U2'
p1451
I0
I1
tp1452
Rp1453
(I3
S'<'
p1454
NNNI8
I4
I8
tp1455
bS'\x00_\x00\x00t^\x00\x00'
p1456
tp1457
Rp1458
I01
sg1
(g2
(S'U2'
p1459
I0
I1
tp1460
Rp1461
(I3
S'<'
p1462
NNNI8
I4
I8
tp1463
bS'\xf7N\x00\x00<h\x00\x00'
p1464
tp1465
Rp1466
I01
sg1
(g2
(S'U2'
p1467
I0
I1
tp1468
Rp1469
(I3
S'<'
p1470
NNNI8
I4
I8
tp1471
bS'\x1aO\x00\x00XT\x00\x00'
p1472
tp1473
Rp1474
I01
sg1
(g2
(S'U2'
p1475
I0
I1
tp1476
Rp1477
(I3
S'<'
p1478
NNNI8
I4
I8
tp1479
bS'eg\x00\x00\x97^\x00\x00'
p1480
tp1481
Rp1482
I01
sg1
(g2
(S'U2'
p1483
I0
I1
tp1484
Rp1485
(I3
S'<'
p1486
NNNI8
I4
I8
tp1487
bS'CQ\x00\x00w\x8d\x00\x00'
p1488
tp1489
Rp1490
I01
sg1
(g2
(S'U2'
p1491
I0
I1
tp1492
Rp1493
(I3
S'<'
p1494
NNNI8
I4
I8
tp1495
bS']y\x00\x00\xa8`\x00\x00'
p1496
tp1497
Rp1498
I01
sg1
(g2
(S'U1'
p1499
I0
I1
tp1500
Rp1501
(I3
S'<'
p1502
NNNI4
I4
I8
tp1503
bS'\x01\x90\x00\x00'
p1504
tp1505
Rp1506
I01
sg1
(g2
(S'U1'
p1507
I0
I1
tp1508
Rp1509
(I3
S'<'
p1510
NNNI4
I4
I8
tp1511
bS'\x82\x82\x00\x00'
p1512
tp1513
Rp1514
I01
sg1
(g2
(S'U2'
p1515
I0
I1
tp1516
Rp1517
(I3
S'<'
p1518
NNNI8
I4
I8
tp1519
bS'\xa7N\x00\x00\xc1T\x00\x00'
p1520
tp1521
Rp1522
I01
sg1
(g2
(S'U2'
p1523
I0
I1
tp1524
Rp1525
(I3
S'<'
p1526
NNNI8
I4
I8
tp1527
bS'P\x96\x00\x00\xcf\x91\x00\x00'
p1528
tp1529
Rp1530
I01
sg1
(g2
(S'U2'
p1531
I0
I1
tp1532
Rp1533
(I3
S'<'
p1534
NNNI8
I4
I8
tp1535
bS'\tg\x00\x00P\x96\x00\x00'
p1536
tp1537
Rp1538
I01
sg1
(g2
(S'U2'
p1539
I0
I1
tp1540
Rp1541
(I3
S'<'
p1542
NNNI8
I4
I8
tp1543
bS"'Y\x00\x00<y\x00\x00"
p1544
tp1545
Rp1546
I01
sg1
(g2
(S'U2'
p1547
I0
I1
tp1548
Rp1549
(I3
S'<'
p1550
NNNI8
I4
I8
tp1551
bS'\xda\x8b\x00\x00\x80\x90\x00\x00'
p1552
tp1553
Rp1554
I01
sg1
(g2
(S'U4'
p1555
I0
I1
tp1556
Rp1557
(I3
S'<'
p1558
NNNI16
I4
I8
tp1559
bS'\rT\x00\x00\x9d\x98\x00\x00\tg\x00\x00P\x96\x00\x00'
p1560
tp1561
Rp1562
I01
sg1
(g2
(S'U2'
p1563
I0
I1
tp1564
Rp1565
(I3
S'<'
p1566
NNNI8
I4
I8
tp1567
bS';S\x00\x00b\x96\x00\x00'
p1568
tp1569
Rp1570
I01
sg1
(g2
(S'U2'
p1571
I0
I1
tp1572
Rp1573
(I3
S'<'
p1574
NNNI8
I4
I8
tp1575
bS'\x8e\x7f\x00\x00\xb9[\x00\x00'
p1576
tp1577
Rp1578
I01
sg1
(g2
(S'U2'
p1579
I0
I1
tp1580
Rp1581
(I3
S'<'
p1582
NNNI8
I4
I8
tp1583
bS'\xf6e\x00\x00\xf4\x95\x00\x00'
p1584
tp1585
Rp1586
I01
sg1
(g2
(S'U2'
p1587
I0
I1
tp1588
Rp1589
(I3
S'<'
p1590
NNNI8
I4
I8
tp1591
bS'\x96\x99\x00\x00\xd8N\x00\x00'
p1592
tp1593
Rp1594
I01
sg1
(g2
(S'U2'
p1595
I0
I1
tp1596
Rp1597
(I3
S'<'
p1598
NNNI8
I4
I8
tp1599
bS'\x9cQ\x00\x00L\x88\x00\x00'
p1600
tp1601
Rp1602
I01
sg1
(g2
(S'U2'
p1603
I0
I1
tp1604
Rp1605
(I3
S'<'
p1606
NNNI8
I4
I8
tp1607
bS'NO\x00\x00\xf3\x81\x00\x00'
p1608
tp1609
Rp1610
I01
sg1
(g2
(S'U2'
p1611
I0
I1
tp1612
Rp1613
(I3
S'<'
p1614
NNNI8
I4
I8
tp1615
bS'pe\x00\x00\xcf\x91\x00\x00'
p1616
tp1617
Rp1618
I01
sg1
(g2
(S'U2'
p1619
I0
I1
tp1620
Rp1621
(I3
S'<'
p1622
NNNI8
I4
I8
tp1623
bS'\xf4\x81\x00\x005u\x00\x00'
p1624
tp1625
Rp1626
I01
sg1
(g2
(S'U1'
p1627
I0
I1
tp1628
Rp1629
(I3
S'<'
p1630
NNNI4
I4
I8
tp1631
bS'!\x00\x00\x00'
p1632
tp1633
Rp1634
I01
sg1
(g2
(S'U2'
p1635
I0
I1
tp1636
Rp1637
(I3
S'<'
p1638
NNNI8
I4
I8
tp1639
bS'\x88m\x00\x009\x8d\x00\x00'
p1640
tp1641
Rp1642
I01
sg1
(g2
(S'U4'
p1643
I0
I1
tp1644
Rp1645
(I3
S'<'
p1646
NNNI16
I4
I8
tp1647
bS'x\x00\x00\x00x\x00\x00\x00x\x00\x00\x00x\x00\x00\x00'
p1648
tp1649
Rp1650
I01
sg1
(g2
(S'U2'
p1651
I0
I1
tp1652
Rp1653
(I3
S'<'
p1654
NNNI8
I4
I8
tp1655
bS'\xb2N\x00\x001r\x00\x00'
p1656
tp1657
Rp1658
I01
sg1
(g2
(S'U2'
p1659
I0
I1
tp1660
Rp1661
(I3
S'<'
p1662
NNNI8
I4
I8
tp1663
bS'\x13N\x00\x00\xdcg\x00\x00'
p1664
tp1665
Rp1666
I01
sg1
(g2
(S'U2'
p1667
I0
I1
tp1668
Rp1669
(I3
S'<'
p1670
NNNI8
I4
I8
tp1671
bS'ck\x00\x00\xf7N\x00\x00'
p1672
tp1673
Rp1674
I01
sg1
(g2
(S'U2'
p1675
I0
I1
tp1676
Rp1677
(I3
S'<'
p1678
NNNI8
I4
I8
tp1679
bS'\x18O\x00\x00\xe0`\x00\x00'
p1680
tp1681
Rp1682
I01
sg1
(g2
(S'U2'
p1683
I0
I1
tp1684
Rp1685
(I3
S'<'
p1686
NNNI8
I4
I8
tp1687
bS'{Q\x00\x00\x1fu\x00\x00'
p1688
tp1689
Rp1690
I01
sg1
(g2
(S'U1'
p1691
I0
I1
tp1692
Rp1693
(I3
S'<'
p1694
NNNI4
I4
I8
tp1695
bS'\x9c\x94\x00\x00'
p1696
tp1697
Rp1698
I01
sg1
(g2
(S'U1'
p1699
I0
I1
tp1700
Rp1701
(I3
S'<'
p1702
NNNI4
I4
I8
tp1703
bS'\xb0e\x00\x00'
p1704
tp1705
Rp1706
I01
sg1
(g2
(S'U2'
p1707
I0
I1
tp1708
Rp1709
(I3
S'<'
p1710
NNNI8
I4
I8
tp1711
bS'\tN\x00\x00kQ\x00\x00'
p1712
tp1713
Rp1714
I01
sg1
(g2
(S'U1'
p1715
I0
I1
tp1716
Rp1717
(I3
S'<'
p1718
NNNI4
I4
I8
tp1719
bS'\xb2N\x00\x00'
p1720
tp1721
Rp1722
I01
sg1
(g2
(S'U6'
p1723
I0
I1
tp1724
Rp1725
(I3
S'<'
p1726
NNNI24
I4
I8
tp1727
bS'x\x00\x00\x00x\x00\x00\x00x\x00\x00\x00x\x00\x00\x00x\x00\x00\x00x\x00\x00\x00'
p1728
tp1729
Rp1730
I01
sg1
(g2
(S'U2'
p1731
I0
I1
tp1732
Rp1733
(I3
S'<'
p1734
NNNI8
I4
I8
tp1735
bS'\xceW\x00\x00\xa1{\x00\x00'
p1736
tp1737
Rp1738
I01
sg1
(g2
(S'U2'
p1739
I0
I1
tp1740
Rp1741
(I3
S'<'
p1742
NNNI8
I4
I8
tp1743
bS'CQ\x00\x00\xb5[\x00\x00'
p1744
tp1745
Rp1746
I01
sg1
(g2
(S'U2'
p1747
I0
I1
tp1748
Rp1749
(I3
S'<'
p1750
NNNI8
I4
I8
tp1751
bS'1\x00\x00\x000\x00\x00\x00'
p1752
tp1753
Rp1754
I01
sg1
(g2
(S'U2'
p1755
I0
I1
tp1756
Rp1757
(I3
S'<'
p1758
NNNI8
I4
I8
tp1759
bS'MR\x00\x00eg\x00\x00'
p1760
tp1761
Rp1762
I01
sg1
(g2
(S'U3'
p1763
I0
I1
tp1764
Rp1765
(I3
S'<'
p1766
NNNI12
I4
I8
tp1767
bS'\xb1\x82\x00\x00CS\x00\x00\xa8\x9a\x00\x00'
p1768
tp1769
Rp1770
I01
sg1
(g2
(S'U1'
p1771
I0
I1
tp1772
Rp1773
(I3
S'<'
p1774
NNNI4
I4
I8
tp1775
bS'CQ\x00\x00'
p1776
tp1777
Rp1778
I01
sg1
(g2
(S'U2'
p1779
I0
I1
tp1780
Rp1781
(I3
S'<'
p1782
NNNI8
I4
I8
tp1783
bS'\x98b\x00\x00\x0eT\x00\x00'
p1784
tp1785
Rp1786
I01
sg1
(g2
(S'U2'
p1787
I0
I1
tp1788
Rp1789
(I3
S'<'
p1790
NNNI8
I4
I8
tp1791
bS'\x1fa\x00\x00i`\x00\x00'
p1792
tp1793
Rp1794
I01
sg1
(g2
(S'U2'
p1795
I0
I1
tp1796
Rp1797
(I3
S'<'
p1798
NNNI8
I4
I8
tp1799
bS'"\x8c\x00\x00"\x8c\x00\x00'
p1800
tp1801
Rp1802
I01
sg1
(g2
(S'U2'
p1803
I0
I1
tp1804
Rp1805
(I3
S'<'
p1806
NNNI8
I4
I8
tp1807
bS'\xfa^\x00\x00Pg\x00\x00'
p1808
tp1809
Rp1810
I01
sg1
(g2
(S'U2'
p1811
I0
I1
tp1812
Rp1813
(I3
S'<'
p1814
NNNI8
I4
I8
tp1815
bS'\x00g\x00\x00NO\x00\x00'
p1816
tp1817
Rp1818
I01
sg1
(g2
(S'U2'
p1819
I0
I1
tp1820
Rp1821
(I3
S'<'
p1822
NNNI8
I4
I8
tp1823
bS'0R\x00\x00eg\x00\x00'
p1824
tp1825
Rp1826
I01
sg1
(g2
(S'U1'
p1827
I0
I1
tp1828
Rp1829
(I3
S'<'
p1830
NNNI4
I4
I8
tp1831
bS'\xcc\x91\x00\x00'
p1832
tp1833
Rp1834
I01
sg1
(g2
(S'U2'
p1835
I0
I1
tp1836
Rp1837
(I3
S'<'
p1838
NNNI8
I4
I8
tp1839
bS'Kb\x00\x00\xed~\x00\x00'
p1840
tp1841
Rp1842
I01
sg1
(g2
(S'U2'
p1843
I0
I1
tp1844
Rp1845
(I3
S'<'
p1846
NNNI8
I4
I8
tp1847
bS'HQ\x00\x00\x97_\x00\x00'
p1848
tp1849
Rp1850
I01
sg1
(g2
(S'U2'
p1851
I0
I1
tp1852
Rp1853
(I3
S'<'
p1854
NNNI8
I4
I8
tp1855
bS'\tN\x00\x00\x08g\x00\x00'
p1856
tp1857
Rp1858
I01
sg1
(g2
(S'U2'
p1859
I0
I1
tp1860
Rp1861
(I3
S'<'
p1862
NNNI8
I4
I8
tp1863
bS'\xe6\x8b\x00\x00\xe2\x8b\x00\x00'
p1864
tp1865
Rp1866
I01
sg1
(g2
(S'U2'
p1867
I0
I1
tp1868
Rp1869
(I3
S'<'
p1870
NNNI8
I4
I8
tp1871
bS'\xb0e\x00\x00\xc1T\x00\x00'
p1872
tp1873
Rp1874
I01
sg1
(g2
(S'U1'
p1875
I0
I1
tp1876
Rp1877
(I3
S'<'
p1878
NNNI4
I4
I8
tp1879
bS'\xd4\x8f\x00\x00'
p1880
tp1881
Rp1882
I01
sg1
(g2
(S'U3'
p1883
I0
I1
tp1884
Rp1885
(I3
S'<'
p1886
NNNI12
I4
I8
tp1887
bS'\x13N\x00\x00VS\x00\x00\x97^\x00\x00'
p1888
tp1889
Rp1890
I01
sg1
(g2
(S'U2'
p1891
I0
I1
tp1892
Rp1893
(I3
S'<'
p1894
NNNI8
I4
I8
tp1895
bS'\x8cN\x00\x00|i\x00\x00'
p1896
tp1897
Rp1898
I01
sg1
(g2
(S'U2'
p1899
I0
I1
tp1900
Rp1901
(I3
S'<'
p1902
NNNI8
I4
I8
tp1903
bS'\x9fS\x00\x00\xf7N\x00\x00'
p1904
tp1905
Rp1906
I01
sg1
(g2
(S'U2'
p1907
I0
I1
tp1908
Rp1909
(I3
S'<'
p1910
NNNI8
I4
I8
tp1911
bS'\xb6[\x00\x00E\\\x00\x00'
p1912
tp1913
Rp1914
I01
sg1
(g2
(S'U1'
p1915
I0
I1
tp1916
Rp1917
(I3
S'<'
p1918
NNNI4
I4
I8
tp1919
bS'P\x96\x00\x00'
p1920
tp1921
Rp1922
I01
sg1
(g2
(S'U2'
p1923
I0
I1
tp1924
Rp1925
(I3
S'<'
p1926
NNNI8
I4
I8
tp1927
bS's^\x00\x00s|\x00\x00'
p1928
tp1929
Rp1930
I01
sg1
(g2
(S'U2'
p1931
I0
I1
tp1932
Rp1933
(I3
S'<'
p1934
NNNI8
I4
I8
tp1935
bS'%f\x00\x00c[\x00\x00'
p1936
tp1937
Rp1938
I01
sg1
(g2
(S'U2'
p1939
I0
I1
tp1940
Rp1941
(I3
S'<'
p1942
NNNI8
I4
I8
tp1943
bS'HQ\x00\x000R\x00\x00'
p1944
tp1945
Rp1946
I01
sg1
(g2
(S'U3'
p1947
I0
I1
tp1948
Rp1949
(I3
S'<'
p1950
NNNI12
I4
I8
tp1951
bS':g\x00\x00hV\x00\x00\xbaN\x00\x00'
p1952
tp1953
Rp1954
I01
sg1
(g2
(S'U2'
p1955
I0
I1
tp1956
Rp1957
(I3
S'<'
p1958
NNNI8
I4
I8
tp1959
bS'NS\x00\x00:N\x00\x00'
p1960
tp1961
Rp1962
I01
sg1
(g2
(S'U2'
p1963
I0
I1
tp1964
Rp1965
(I3
S'<'
p1966
NNNI8
I4
I8
tp1967
bS'5u\x00\x00\xafh\x00\x00'
p1968
tp1969
Rp1970
I01
sg1
(g2
(S'U2'
p1971
I0
I1
tp1972
Rp1973
(I3
S'<'
p1974
NNNI8
I4
I8
tp1975
bS'\t\x90\x00\x00-\x8d\x00\x00'
p1976
tp1977
Rp1978
I01
sg1
(g2
(S'U1'
p1979
I0
I1
tp1980
Rp1981
(I3
S'<'
p1982
NNNI4
I4
I8
tp1983
bS'\xf4\x8b\x00\x00'
p1984
tp1985
Rp1986
I01
sg1
(g2
(S'U2'
p1987
I0
I1
tp1988
Rp1989
(I3
S'<'
p1990
NNNI8
I4
I8
tp1991
bS'\x98b\x00\x00cb\x00\x00'
p1992
tp1993
Rp1994
I01
sg1
(g2
(S'U1'
p1995
I0
I1
tp1996
Rp1997
(I3
S'<'
p1998
NNNI4
I4
I8
tp1999
bS'yr\x00\x00'
p2000
tp2001
Rp2002
I01
s.